; ModuleID = 'bench/folly/original/AtomicNotification.ll'
source_filename = "bench/folly/original/AtomicNotification.ll"
target datalayout = "e-m:e-p270:32:32-p271:32:32-p272:64:64-i64:64-i128:128-f80:128-n8:16:32:64-S128"
target triple = "x86_64-pc-linux-gnu"

%"class.folly::ParkingLot" = type { i64 }
%"struct.std::atomic" = type { %"struct.std::__atomic_base" }
%"struct.std::__atomic_base" = type { i64 }

@_ZN5folly6detail19atomic_notification10parkingLotE = local_unnamed_addr global %"class.folly::ParkingLot" zeroinitializer, align 8
@_ZN5folly18parking_lot_detail11idallocatorE = external global %"struct.std::atomic", align 8
@llvm.global_ctors = appending global [1 x { i32, ptr, ptr }] [{ i32, ptr, ptr } { i32 65535, ptr @_GLOBAL__sub_I_AtomicNotification.cpp, ptr null }]

; Function Attrs: mustprogress nofree norecurse nounwind willreturn memory(readwrite, argmem: none, inaccessiblemem: none) uwtable
define internal void @_GLOBAL__sub_I_AtomicNotification.cpp() #0 section ".text.startup" {
  %1 = atomicrmw add ptr @_ZN5folly18parking_lot_detail11idallocatorE, i64 1 seq_cst, align 8
  store i64 %1, ptr @_ZN5folly6detail19atomic_notification10parkingLotE, align 8, !tbaa !7
  ret void
}


!llvm.module.flags = !{!0, !1, !2, !3, !4, !5, !6}

!0 = !{i32 7, !"Dwarf Version", i32 5}
!1 = !{i32 2, !"Debug Info Version", i32 3}
!2 = !{i32 1, !"wchar_size", i32 4}
!3 = !{i32 7, !"openmp", i32 51}
!4 = !{i32 8, !"PIC Level", i32 2}
!5 = !{i32 7, !"uwtable", i32 2}
!6 = !{i32 7, !"debug-info-assignment-tracking", i1 true}
!7 = !{!8, !9, i64 0}
!8 = !{!"_ZTSN5folly10ParkingLotIjEE", !9, i64 0}
!9 = !{!"long", !10, i64 0}
!10 = !{!"omnipotent char", !11, i64 0}
!11 = !{!"Simple C++ TBAA"}
